; Function Attrs: nounwind uwtable
define noundef ptr @Abc_NtkCreateNodeConst0(ptr noundef %0) local_unnamed_addr #0 {
  %2 = tail call noundef ptr @Abc_NtkCreateObj(ptr noundef %0, i32 noundef 7)
  %3 = getelementptr i8, ptr %0, i64 4
  %.val20 = load i32, ptr %3, align 4, !tbaa !51
  switch i32 %.val20, label %26 [
    i32 1, label %4
    i32 5, label %4
    i32 2, label %9
    i32 3, label %14
    i32 4, label %22
  ]

4:                                                ; preds = %1, %1
  %5 = getelementptr inbounds nuw i8, ptr %0, i64 256
  %6 = load ptr, ptr %5, align 8, !tbaa !52
  %7 = tail call ptr @Abc_SopRegister(ptr noundef %6, ptr noundef nonnull @.str.4) #10
  %8 = getelementptr inbounds nuw i8, ptr %2, i64 56
  store ptr %7, ptr %8, align 8, !tbaa !43
  br label %26

9:                                                ; preds = %1
  %10 = getelementptr inbounds nuw i8, ptr %0, i64 256
  %11 = load ptr, ptr %10, align 8, !tbaa !52
  %12 = tail call ptr @Cudd_ReadLogicZero(ptr noundef %11) #10
  %13 = getelementptr inbounds nuw i8, ptr %2, i64 56
  store ptr %12, ptr %13, align 8, !tbaa !43
  tail call void @Cudd_Ref(ptr noundef %12) #10
  br label %26

14:                                               ; preds = %1
  %15 = getelementptr inbounds nuw i8, ptr %0, i64 256
  %16 = load ptr, ptr %15, align 8, !tbaa !52
  %17 = getelementptr i8, ptr %16, i64 24
  %.val24 = load ptr, ptr %17, align 8, !tbaa !64
  %18 = ptrtoint ptr %.val24 to i64
  %19 = xor i64 %18, 1
  %20 = inttoptr i64 %19 to ptr
  %21 = getelementptr inbounds nuw i8, ptr %2, i64 56
  store ptr %20, ptr %21, align 8, !tbaa !43
  br label %26

22:                                               ; preds = %1
  %23 = tail call ptr (...) @Abc_FrameReadLibGen() #10
  %24 = tail call ptr @Mio_LibraryReadConst0(ptr noundef %23) #10
  %25 = getelementptr inbounds nuw i8, ptr %2, i64 56
  store ptr %24, ptr %25, align 8, !tbaa !43
  br label %26

26:                                               ; preds = %1, %9, %22, %14, %4
  ret ptr %2
}